GAS LISTING /var/folders/jy/pkqnkk1s5x97h68j2fkh30vh0000gq/T//ccbEQVCa.s 			page 1


   1               		.file	"wiring_pulse.c"
   2               	__SREG__ = 0x3f
   3               	__SP_H__ = 0x3e
   4               	__SP_L__ = 0x3d
   5               	__CCP__ = 0x34
   6               	__tmp_reg__ = 0
   7               	__zero_reg__ = 1
   8               		.global __do_copy_data
   9               		.global __do_clear_bss
  10               		.section	.text.pulseIn,"ax",@progbits
  11               	.global	pulseIn
  12               		.type	pulseIn, @function
  13               	pulseIn:
  14 0000 CF92      		push r12
  15 0002 DF92      		push r13
  16 0004 EF92      		push r14
  17 0006 FF92      		push r15
  18 0008 0F93      		push r16
  19 000a 1F93      		push r17
  20 000c CF93      		push r28
  21 000e DF93      		push r29
  22               	/* prologue: function */
  23               	/* frame size = 0 */
  24               	/* stack size = 8 */
  25               	.L__stack_usage = 8
  26 0010 90E0      		ldi r25,lo8(0)
  27 0012 FC01      		movw r30,r24
  28 0014 E050      		subi r30,lo8(-(digital_pin_to_bit_mask_PGM))
  29 0016 F040      		sbci r31,hi8(-(digital_pin_to_bit_mask_PGM))
  30               	/* #APP */
  31               	 ;  37 "../lib/tiny/wiring_pulse.c" 1
  32 0018 C490      		lpm r12, Z
  33               		
  34               	 ;  0 "" 2
  35               	/* #NOAPP */
  36 001a FC01      		movw r30,r24
  37 001c E050      		subi r30,lo8(-(digital_pin_to_port_PGM))
  38 001e F040      		sbci r31,hi8(-(digital_pin_to_port_PGM))
  39               	/* #APP */
  40               	 ;  38 "../lib/tiny/wiring_pulse.c" 1
  41 0020 F490      		lpm r15, Z
  42               		
  43               	 ;  0 "" 2
  44               	/* #NOAPP */
  45 0022 6623      		tst r22
  46 0024 01F4      		brne .L11
  47 0026 DD24      		clr r13
  48 0028 00C0      		rjmp .L2
  49               	.L11:
  50 002a DC2C      		mov r13,r12
  51               	.L2:
  52 002c CA01      		movw r24,r20
  53 002e B901      		movw r22,r18
  54 0030 24E7      		ldi r18,lo8(16500)
  55 0032 30E4      		ldi r19,hi8(16500)
  56 0034 40E0      		ldi r20,hlo8(16500)
  57 0036 50E0      		ldi r21,hhi8(16500)
GAS LISTING /var/folders/jy/pkqnkk1s5x97h68j2fkh30vh0000gq/T//ccbEQVCa.s 			page 2


  58 0038 00D0      		rcall __mulsi3
  59 003a 20E8      		ldi r18,lo8(16000)
  60 003c 3EE3      		ldi r19,hi8(16000)
  61 003e 40E0      		ldi r20,hlo8(16000)
  62 0040 50E0      		ldi r21,hhi8(16000)
  63 0042 00D0      		rcall __udivmodsi4
  64 0044 8901      		movw r16,r18
  65 0046 9A01      		movw r18,r20
  66 0048 80E0      		ldi r24,lo8(0)
  67 004a 90E0      		ldi r25,hi8(0)
  68 004c DC01      		movw r26,r24
  69 004e EF2D      		mov r30,r15
  70 0050 F0E0      		ldi r31,lo8(0)
  71 0052 E050      		subi r30,lo8(-(port_to_input_PGM))
  72 0054 F040      		sbci r31,hi8(-(port_to_input_PGM))
  73               	/* #APP */
  74               	 ;  48 "../lib/tiny/wiring_pulse.c" 1
  75 0056 E490      		lpm r14, Z
  76               		
  77               	 ;  0 "" 2
  78               	/* #NOAPP */
  79 0058 FF24      		clr r15
  80 005a 00C0      		rjmp .L3
  81               	.L5:
  82 005c AC01      		movw r20,r24
  83 005e BD01      		movw r22,r26
  84 0060 4F5F      		subi r20,lo8(-(1))
  85 0062 5F4F      		sbci r21,hi8(-(1))
  86 0064 6F4F      		sbci r22,hlo8(-(1))
  87 0066 7F4F      		sbci r23,hhi8(-(1))
  88 0068 8017      		cp r24,r16
  89 006a 9107      		cpc r25,r17
  90 006c A207      		cpc r26,r18
  91 006e B307      		cpc r27,r19
  92 0070 01F4      		brne .+2
  93 0072 00C0      		rjmp .L14
  94 0074 DB01      		movw r26,r22
  95 0076 CA01      		movw r24,r20
  96               	.L3:
  97 0078 E701      		movw r28,r14
  98 007a 4881      		ld r20,Y
  99 007c 4C21      		and r20,r12
 100 007e 4D15      		cp r20,r13
 101 0080 01F0      		breq .L5
 102 0082 00C0      		rjmp .L17
 103               	.L8:
 104 0084 AC01      		movw r20,r24
 105 0086 BD01      		movw r22,r26
 106 0088 4F5F      		subi r20,lo8(-(1))
 107 008a 5F4F      		sbci r21,hi8(-(1))
 108 008c 6F4F      		sbci r22,hlo8(-(1))
 109 008e 7F4F      		sbci r23,hhi8(-(1))
 110 0090 8017      		cp r24,r16
 111 0092 9107      		cpc r25,r17
 112 0094 A207      		cpc r26,r18
 113 0096 B307      		cpc r27,r19
 114 0098 01F0      		breq .L14
GAS LISTING /var/folders/jy/pkqnkk1s5x97h68j2fkh30vh0000gq/T//ccbEQVCa.s 			page 3


 115 009a DB01      		movw r26,r22
 116 009c CA01      		movw r24,r20
 117 009e 00C0      		rjmp .L16
 118               	.L17:
 119               	/* #APP */
 120               	 ;  53 "../lib/tiny/wiring_pulse.c" 1
 121 00a0 E490      		lpm r14, Z
 122               		
 123               	 ;  0 "" 2
 124               	/* #NOAPP */
 125 00a2 FF24      		clr r15
 126               	.L16:
 127 00a4 E701      		movw r28,r14
 128 00a6 4881      		ld r20,Y
 129 00a8 4C21      		and r20,r12
 130 00aa 4D15      		cp r20,r13
 131 00ac 01F4      		brne .L8
 132 00ae 40E0      		ldi r20,lo8(0)
 133 00b0 50E0      		ldi r21,hi8(0)
 134 00b2 BA01      		movw r22,r20
 135               	/* #APP */
 136               	 ;  58 "../lib/tiny/wiring_pulse.c" 1
 137 00b4 E491      		lpm r30, Z
 138               		
 139               	 ;  0 "" 2
 140               	/* #NOAPP */
 141 00b6 F0E0      		ldi r31,lo8(0)
 142 00b8 00C0      		rjmp .L9
 143               	.L10:
 144 00ba 8017      		cp r24,r16
 145 00bc 9107      		cpc r25,r17
 146 00be A207      		cpc r26,r18
 147 00c0 B307      		cpc r27,r19
 148 00c2 01F0      		breq .L14
 149 00c4 0196      		adiw r24,1
 150 00c6 A11D      		adc r26,__zero_reg__
 151 00c8 B11D      		adc r27,__zero_reg__
 152 00ca 4F5F      		subi r20,lo8(-(1))
 153 00cc 5F4F      		sbci r21,hi8(-(1))
 154 00ce 6F4F      		sbci r22,hlo8(-(1))
 155 00d0 7F4F      		sbci r23,hhi8(-(1))
 156               	.L9:
 157 00d2 F080      		ld r15,Z
 158 00d4 FC20      		and r15,r12
 159 00d6 FD14      		cp r15,r13
 160 00d8 01F0      		breq .L10
 161 00da CB01      		movw r24,r22
 162 00dc BA01      		movw r22,r20
 163 00de 28E0      		ldi r18,lo8(21000)
 164 00e0 32E5      		ldi r19,hi8(21000)
 165 00e2 40E0      		ldi r20,hlo8(21000)
 166 00e4 50E0      		ldi r21,hhi8(21000)
 167 00e6 00D0      		rcall __mulsi3
 168 00e8 6058      		subi r22,lo8(-(16000))
 169 00ea 714C      		sbci r23,hi8(-(16000))
 170 00ec 8F4F      		sbci r24,hlo8(-(16000))
 171 00ee 9F4F      		sbci r25,hhi8(-(16000))
GAS LISTING /var/folders/jy/pkqnkk1s5x97h68j2fkh30vh0000gq/T//ccbEQVCa.s 			page 4


 172 00f0 24E7      		ldi r18,lo8(16500)
 173 00f2 30E4      		ldi r19,hi8(16500)
 174 00f4 40E0      		ldi r20,hlo8(16500)
 175 00f6 50E0      		ldi r21,hhi8(16500)
 176 00f8 00D0      		rcall __udivmodsi4
 177 00fa 8901      		movw r16,r18
 178 00fc 9A01      		movw r18,r20
 179 00fe 00C0      		rjmp .L4
 180               	.L14:
 181 0100 00E0      		ldi r16,lo8(0)
 182 0102 10E0      		ldi r17,hi8(0)
 183 0104 9801      		movw r18,r16
 184               	.L4:
 185 0106 B801      		movw r22,r16
 186 0108 C901      		movw r24,r18
 187               	/* epilogue start */
 188 010a DF91      		pop r29
 189 010c CF91      		pop r28
 190 010e 1F91      		pop r17
 191 0110 0F91      		pop r16
 192 0112 FF90      		pop r15
 193 0114 EF90      		pop r14
 194 0116 DF90      		pop r13
 195 0118 CF90      		pop r12
 196 011a 0895      		ret
 197               		.size	pulseIn, .-pulseIn
GAS LISTING /var/folders/jy/pkqnkk1s5x97h68j2fkh30vh0000gq/T//ccbEQVCa.s 			page 5


DEFINED SYMBOLS
                            *ABS*:00000000 wiring_pulse.c
/var/folders/jy/pkqnkk1s5x97h68j2fkh30vh0000gq/T//ccbEQVCa.s:2      *ABS*:0000003f __SREG__
/var/folders/jy/pkqnkk1s5x97h68j2fkh30vh0000gq/T//ccbEQVCa.s:3      *ABS*:0000003e __SP_H__
/var/folders/jy/pkqnkk1s5x97h68j2fkh30vh0000gq/T//ccbEQVCa.s:4      *ABS*:0000003d __SP_L__
/var/folders/jy/pkqnkk1s5x97h68j2fkh30vh0000gq/T//ccbEQVCa.s:5      *ABS*:00000034 __CCP__
/var/folders/jy/pkqnkk1s5x97h68j2fkh30vh0000gq/T//ccbEQVCa.s:6      *ABS*:00000000 __tmp_reg__
/var/folders/jy/pkqnkk1s5x97h68j2fkh30vh0000gq/T//ccbEQVCa.s:7      *ABS*:00000001 __zero_reg__
/var/folders/jy/pkqnkk1s5x97h68j2fkh30vh0000gq/T//ccbEQVCa.s:13     .text.pulseIn:00000000 pulseIn

UNDEFINED SYMBOLS
__do_copy_data
__do_clear_bss
digital_pin_to_bit_mask_PGM
digital_pin_to_port_PGM
__mulsi3
__udivmodsi4
port_to_input_PGM
